-----BEGIN ENCRYPTED PRIVATE KEY-----
MIIFHDBOBgkqhkiG9w0BBQ0wQTApBgkqhkiG9w0BBQwwHAQIAz7eULuhNQQCAggA
MAwGCCqGSIb3DQIJBQAwFAYIKoZIhvcNAwcECLXhLcYzQB2oBIIEyMx9owWP/IYn
HgcukVcn/qsvu6fh0sYR4wJ1ygUJdky+3UqE4xherpkDHCBD1295z8y4Rk3fmj6x
aYYAHK2RqSFvak9PhJiQxkfvLBceyVtf9qQbKoh5ClFEHeWA3Y4gLCB8CCAgwkzS
BZ5saSm6GlyDFLBIlmkf0eFyDPbg0TQL0agUiFJbRBlIQU3ClEfOY2n+52TyCR25
UkXAtUs2fzNRdV3uykzg37DIzmCr1jeMTdRo4M+0CtcypGxlTerLOUMn2twdxSPf
QKydA8qX/VhctHx06M5Z8S6+/VGmajaJSNLA9fsE+jWvy7JxQFA7MT/a+Ff1HCFg
UhEaHwIV7ZxeplQVhGRlJyfR9cUKy+xBWUm4MtxlzY1E7Hsm3gxESKZXH4mJhRDH
NpIc7JrpIyYHBJCWZtcYTdg0ZT11rAvSke0ytqpb+314uqSPxcBnY5lJ/o5IO5I0
t5cLg0pTfH2fkSBUKCAMnERbWYMuVvKjiqLFWoD3nbDW3+8YBv0VTtxeh8EYTdl6
znbtEq/Nz4uCt4rS4lwePqt4TEMIDPZV86/qaEm9RCEWi/iz8e5YdtK3Bk0gftqz
QGduLHq14VkbF2IDwlUjJrYv1XIcvNoosdj/UGfiPJkhmX6Q4+a3wcXVazpDf+AN
HP+Oc9v60tEOz20su2+K38w8E18nGUmLzi3Lqct132InZ7pxOD4aldbb+p8pCJQT
a8M0NTQTpumRemvrcuGdBDt+Hbi5gjEf0Z3jUP+rzD8wgd/zElUutwW2fiVW9SjA
crftcUXTuwzsdBLfIaA1synkStzBdLcwz5ArsRiIp+QAQkki1iNHGsas/Sr0jBZ3
iOcB3sMTGHEeUnANXZXWwkfJgwsj9wfP5OhH4MJgaPN/jr6y8lFPLIhj1v/Hqk/c
S/4PCUM5UozeLnTtS5I11ZciwokYeJFfDd/VjzCv+I6rTOqmy0tnwqPS2qxmRbF+
ZekqCPjIsMdkVZIRVOFJvbqJlic6E7cKQHtmzEXM1c2uP+3UcX14c4IhxTKBG5M+
njqc2t0BmQ4MKBIfgbnDiHtT086yeKVWHmLbe/z7triXUPb0yYfwmgUiKHCCpDZ8
FwMuIGmCmaZLpfgUHOQg57F/oBH01Kwy4elY4n99b6yP7/Js1wOWGipwZsT4FqXt
3OEECOekY8fwJZrHhr4T/r/4r+d7NDIecvbXSTZmcMUu2DWpc80sGWUC2R1dUAHr
HtUq06slLFCDXt/BBAxq1iB8zBTLfonngVxTQcgcJYidYab2ALb372pmQFcCNyqZ
HtT36zOtgqzM6Lb+VJu+xZo+gNf5f+b6/BGnjP+hPK8DdTOd7pP/2U1w4yz9V4KT
IfIjpTKRQkejGiHC0PGaqSKVikg2M15bGWzUpCDZQGwsFIwuD4IPDQd0qO3gxznG
RCk4n1hjCzHM8p5hdt8jHwWduyE48eHnDmV6QXZguco1fcpCMcIXGwcaX4ANRKCI
z5eYxf9piDlifiS18ZNvNmqWSyaqLptFCwym0uLezEE3G/x6B/yxG2R5xdxd85V7
EujeWfmcWuYgyO2Ou7Z5u07AvQU9ctFYeSwffTon3RVh1ovUNG0Jjyl4ZkVffvgs
AM6fSQMGTJK3ryI3EHmgWw==
-----END ENCRYPTED PRIVATE KEY-----
Certificate:
    Data:
        Version: 3 (0x2)
        Serial Number: 1 (0x1)
        Signature Algorithm: sha1WithRSAEncryption
        Issuer: DC=org, DC=simple, O=Simple Inc, OU=Simple Signing CA, CN=Simple Signing CA
        Validity
            Not Before: May 13 19:19:47 2021 GMT
            Not After : May 13 19:19:47 2023 GMT
        Subject: DC=org, DC=simple, O=Simple Inc, CN=Fred Flintstone
        Subject Public Key Info:
            Public Key Algorithm: rsaEncryption
                RSA Public-Key: (2048 bit)
                Modulus:
                    00:bc:42:98:ca:1d:4d:8f:ab:81:9f:d7:93:b6:13:
                    ff:8b:28:05:4e:04:ef:bc:ee:0b:f3:55:66:96:1e:
                    45:52:23:bf:6d:eb:04:73:f5:4d:21:19:15:02:bb:
                    0c:59:3f:00:b4:a3:69:05:9a:a4:59:b7:94:9c:7b:
                    3c:c7:5f:df:0c:90:92:83:98:dc:d8:94:49:b7:f0:
                    7f:98:cf:07:46:a2:08:49:20:45:eb:6d:22:93:75:
                    c8:b6:a1:58:23:05:66:5a:56:bd:0c:83:78:3f:89:
                    0b:a5:20:b0:59:55:34:c7:78:d7:4e:06:dc:c7:98:
                    93:da:e8:a9:b6:b1:0b:c1:2e:d5:29:71:97:8d:a2:
                    7d:b0:e1:cb:d7:e1:23:8f:af:c6:78:fc:ec:10:a4:
                    f7:93:1f:b4:84:ab:27:59:50:0c:a7:40:16:e4:5c:
                    9b:d0:2e:97:0b:73:b6:64:bd:7d:46:ee:4c:b2:22:
                    12:c1:94:1b:bc:10:d7:51:56:17:61:ef:5d:6a:cd:
                    3b:e1:77:9f:30:44:b6:c5:b9:f4:bc:2f:f4:59:e7:
                    c3:2f:a2:cd:3e:5a:79:af:c9:72:94:c7:28:15:7b:
                    e3:49:ac:ff:65:5d:9d:d9:0f:07:41:38:27:60:ee:
                    dd:6b:e7:da:9e:f0:ce:0c:a5:05:5c:33:13:56:6b:
                    dc:c3
                Exponent: 65537 (0x10001)
        X509v3 extensions:
            X509v3 Key Usage: critical
                Digital Signature, Key Encipherment
            X509v3 Basic Constraints: 
                CA:FALSE
            X509v3 Extended Key Usage: 
                E-mail Protection, TLS Web Client Authentication
            X509v3 Subject Key Identifier: 
                3C:F4:42:5C:DD:79:24:81:CC:38:BB:7F:3B:C5:52:1D:00:9E:24:B2
            X509v3 Authority Key Identifier: 
                keyid:A8:E3:0F:2E:E7:01:0F:D0:ED:E9:10:DD:9E:02:56:E7:0A:BF:CE:6F

            X509v3 Subject Alternative Name: 
                email:fred@simple.org
    Signature Algorithm: sha1WithRSAEncryption
         3b:9f:09:fb:45:c3:e4:a9:a1:10:32:07:62:fd:9b:cf:b8:65:
         d4:66:ca:79:88:39:c6:dc:fb:24:15:a6:d1:d1:69:a8:37:e6:
         74:60:73:0b:2e:06:81:e7:d5:be:38:a2:1c:00:ca:64:a6:12:
         b6:29:b1:ea:76:f4:ed:ab:1d:d7:67:af:ea:b3:bc:1f:eb:6f:
         f6:88:1a:0d:9e:a7:95:f9:bc:37:a5:8f:aa:fe:34:b2:5d:3c:
         cf:bc:7b:60:f3:97:0f:e6:45:c3:3f:5a:74:0b:06:c3:99:f5:
         d4:52:ed:a3:54:fe:6e:46:b2:23:8c:27:28:2c:cb:de:8b:77:
         91:7a:4f:b3:d4:e1:0c:14:43:e6:de:9e:e2:a6:a0:d3:da:4a:
         bf:80:8f:53:06:24:a9:80:28:3f:02:b9:ef:eb:2a:7a:0a:c7:
         31:4b:c5:51:f2:18:90:cd:10:0a:ac:4b:69:fe:5d:37:0d:b4:
         eb:8d:65:ff:65:b6:34:16:86:95:ad:72:6e:48:29:b4:61:f5:
         8d:cf:b7:6d:e5:bc:61:64:ee:e8:94:46:9c:03:15:6d:23:7b:
         70:44:56:bb:3c:2b:7f:d3:78:64:bd:cb:b3:e2:6d:78:e5:d6:
         17:00:e3:73:c2:8c:a1:ef:6b:23:a9:ed:e1:d0:9c:09:48:a5:
         4f:0e:cc:57
-----BEGIN CERTIFICATE-----
MIID6zCCAtOgAwIBAgIBATANBgkqhkiG9w0BAQUFADB6MRMwEQYKCZImiZPyLGQB
GRYDb3JnMRYwFAYKCZImiZPyLGQBGRYGc2ltcGxlMRMwEQYDVQQKDApTaW1wbGUg
SW5jMRowGAYDVQQLDBFTaW1wbGUgU2lnbmluZyBDQTEaMBgGA1UEAwwRU2ltcGxl
IFNpZ25pbmcgQ0EwHhcNMjEwNTEzMTkxOTQ3WhcNMjMwNTEzMTkxOTQ3WjBcMRMw
EQYKCZImiZPyLGQBGRYDb3JnMRYwFAYKCZImiZPyLGQBGRYGc2ltcGxlMRMwEQYD
VQQKDApTaW1wbGUgSW5jMRgwFgYDVQQDDA9GcmVkIEZsaW50c3RvbmUwggEiMA0G
CSqGSIb3DQEBAQUAA4IBDwAwggEKAoIBAQC8QpjKHU2Pq4Gf15O2E/+LKAVOBO+8
7gvzVWaWHkVSI79t6wRz9U0hGRUCuwxZPwC0o2kFmqRZt5ScezzHX98MkJKDmNzY
lEm38H+YzwdGoghJIEXrbSKTdci2oVgjBWZaVr0Mg3g/iQulILBZVTTHeNdOBtzH
mJPa6Km2sQvBLtUpcZeNon2w4cvX4SOPr8Z4/OwQpPeTH7SEqydZUAynQBbkXJvQ
LpcLc7ZkvX1G7kyyIhLBlBu8ENdRVhdh711qzTvhd58wRLbFufS8L/RZ58Mvos0+
WnmvyXKUxygVe+NJrP9lXZ3ZDwdBOCdg7t1r59qe8M4MpQVcMxNWa9zDAgMBAAGj
gZkwgZYwDgYDVR0PAQH/BAQDAgWgMAkGA1UdEwQCMAAwHQYDVR0lBBYwFAYIKwYB
BQUHAwQGCCsGAQUFBwMCMB0GA1UdDgQWBBQ89EJc3Xkkgcw4u387xVIdAJ4ksjAf
BgNVHSMEGDAWgBSo4w8u5wEP0O3pEN2eAlbnCr/ObzAaBgNVHREEEzARgQ9mcmVk
QHNpbXBsZS5vcmcwDQYJKoZIhvcNAQEFBQADggEBADufCftFw+SpoRAyB2L9m8+4
ZdRmynmIOcbc+yQVptHRaag35nRgcwsuBoHn1b44ohwAymSmErYpsep29O2rHddn
r+qzvB/rb/aIGg2ep5X5vDelj6r+NLJdPM+8e2Dzlw/mRcM/WnQLBsOZ9dRS7aNU
/m5GsiOMJygsy96Ld5F6T7PU4QwUQ+benuKmoNPaSr+Aj1MGJKmAKD8Cue/rKnoK
xzFLxVHyGJDNEAqsS2n+XTcNtOuNZf9ltjQWhpWtcm5IKbRh9Y3Pt23lvGFk7uiU
RpwDFW0je3BEVrs8K3/TeGS9y7PibXjl1hcA43PCjKHvayOp7eHQnAlIpU8OzFc=
-----END CERTIFICATE-----
