Certificate:
    Data:
        Version: 3 (0x2)
        Serial Number: 2 (0x2)
        Signature Algorithm: sha1WithRSAEncryption
        Issuer: DC=org, DC=simple, O=Simple Inc, OU=Simple Root CA, CN=Simple Root CA
        Validity
            Not Before: May 13 19:14:26 2021 GMT
            Not After : May 13 19:14:26 2031 GMT
        Subject: DC=org, DC=simple, O=Simple Inc, OU=Simple Signing CA, CN=Simple Signing CA
        Subject Public Key Info:
            Public Key Algorithm: rsaEncryption
                RSA Public-Key: (2048 bit)
                Modulus:
                    00:a4:4c:17:2b:dd:d4:e5:e0:f5:a4:a8:fc:bc:a0:
                    48:f2:09:a6:fa:65:df:22:c8:1c:8d:11:ee:4e:51:
                    90:83:d2:1f:32:31:25:5d:8a:3b:95:ac:b2:21:4d:
                    15:ae:6c:05:a3:bb:a8:23:8b:4c:4f:5c:50:4a:8e:
                    00:25:3b:3f:ae:62:0e:ed:56:26:81:a1:27:37:e2:
                    49:83:55:08:2b:2f:1a:a6:99:21:b7:73:ae:eb:19:
                    b6:21:c7:57:79:4f:2d:33:14:a2:ca:b9:2c:cc:76:
                    6b:1a:dd:a9:4a:6a:c8:86:ce:7f:9c:5f:f7:f2:28:
                    38:f1:41:e1:71:5d:ee:a1:80:4d:ea:33:81:fd:e3:
                    4e:2e:1c:ad:2c:f7:21:26:ea:7e:df:4b:1c:81:38:
                    48:00:cb:96:42:ee:10:f6:05:02:c7:9a:6b:d4:25:
                    7d:da:a0:96:06:65:6e:ef:d3:f6:db:ad:78:a2:85:
                    62:23:fb:d9:ac:a7:17:a1:7b:fb:3a:31:24:d8:7e:
                    58:23:c9:82:b8:15:ce:7c:30:62:81:a4:f5:72:4b:
                    ad:53:67:19:01:0b:da:e4:0b:af:9f:cb:7e:44:f5:
                    48:17:7c:93:6d:0a:03:3b:07:ec:7b:52:10:93:a0:
                    65:b7:b5:fb:31:c4:5b:23:f0:56:bd:bb:e8:9e:23:
                    db:e5
                Exponent: 65537 (0x10001)
        X509v3 extensions:
            X509v3 Key Usage: critical
                Certificate Sign, CRL Sign
            X509v3 Basic Constraints: critical
                CA:TRUE, pathlen:0
            X509v3 Subject Key Identifier: 
                A8:E3:0F:2E:E7:01:0F:D0:ED:E9:10:DD:9E:02:56:E7:0A:BF:CE:6F
            X509v3 Authority Key Identifier: 
                keyid:9E:32:33:BF:75:84:5E:8D:A5:02:0C:FA:E1:19:66:44:46:9E:CA:B9

    Signature Algorithm: sha1WithRSAEncryption
         b0:08:7e:8c:10:e9:02:b7:69:3a:72:d4:a4:1c:59:95:66:ed:
         50:21:d9:a0:5a:08:f3:e2:55:eb:c6:05:bc:64:46:61:80:ca:
         73:15:17:31:25:4d:b8:e9:6c:bf:fa:19:9e:23:68:42:b6:0b:
         fd:c1:67:b7:7a:e6:9d:7d:51:87:63:9b:cc:e4:2e:d6:70:08:
         e5:9f:31:1c:46:d0:54:5f:dc:ab:92:fd:77:35:5e:43:8e:0f:
         6b:40:ad:26:d6:74:e8:66:2a:46:12:d3:8c:2a:0a:c2:e0:b2:
         95:49:d8:9e:7e:0e:1d:50:4f:ba:bb:f3:eb:00:bf:d0:ba:2a:
         79:10:d5:9b:c2:3c:6d:52:a8:c3:fb:f3:fe:42:14:35:cb:99:
         73:d6:1a:9a:4b:ff:17:f5:7b:52:71:28:20:69:3a:33:6c:aa:
         bf:bc:db:f2:1b:12:0f:e0:89:b4:24:8a:b4:58:a9:d5:82:9d:
         51:2f:51:70:21:bd:d7:dc:73:82:05:b4:a9:b1:47:66:16:17:
         6c:3b:42:88:c7:17:3e:24:9d:f3:f1:b6:c3:2a:22:2f:d3:2d:
         9e:cc:f2:ad:ed:d4:ee:e9:59:db:2e:fe:6f:c5:98:13:f8:33:
         91:4b:8f:2a:8e:dd:39:46:aa:19:74:24:b7:c3:43:9e:93:a9:
         87:0d:59:87
-----BEGIN CERTIFICATE-----
MIIDzzCCAregAwIBAgIBAjANBgkqhkiG9w0BAQUFADB0MRMwEQYKCZImiZPyLGQB
GRYDb3JnMRYwFAYKCZImiZPyLGQBGRYGc2ltcGxlMRMwEQYDVQQKDApTaW1wbGUg
SW5jMRcwFQYDVQQLDA5TaW1wbGUgUm9vdCBDQTEXMBUGA1UEAwwOU2ltcGxlIFJv
b3QgQ0EwHhcNMjEwNTEzMTkxNDI2WhcNMzEwNTEzMTkxNDI2WjB6MRMwEQYKCZIm
iZPyLGQBGRYDb3JnMRYwFAYKCZImiZPyLGQBGRYGc2ltcGxlMRMwEQYDVQQKDApT
aW1wbGUgSW5jMRowGAYDVQQLDBFTaW1wbGUgU2lnbmluZyBDQTEaMBgGA1UEAwwR
U2ltcGxlIFNpZ25pbmcgQ0EwggEiMA0GCSqGSIb3DQEBAQUAA4IBDwAwggEKAoIB
AQCkTBcr3dTl4PWkqPy8oEjyCab6Zd8iyByNEe5OUZCD0h8yMSVdijuVrLIhTRWu
bAWju6gji0xPXFBKjgAlOz+uYg7tViaBoSc34kmDVQgrLxqmmSG3c67rGbYhx1d5
Ty0zFKLKuSzMdmsa3alKasiGzn+cX/fyKDjxQeFxXe6hgE3qM4H9404uHK0s9yEm
6n7fSxyBOEgAy5ZC7hD2BQLHmmvUJX3aoJYGZW7v0/bbrXiihWIj+9mspxehe/s6
MSTYflgjyYK4Fc58MGKBpPVyS61TZxkBC9rkC6+fy35E9UgXfJNtCgM7B+x7UhCT
oGW3tfsxxFsj8Fa9u+ieI9vlAgMBAAGjZjBkMA4GA1UdDwEB/wQEAwIBBjASBgNV
HRMBAf8ECDAGAQH/AgEAMB0GA1UdDgQWBBSo4w8u5wEP0O3pEN2eAlbnCr/ObzAf
BgNVHSMEGDAWgBSeMjO/dYRejaUCDPrhGWZERp7KuTANBgkqhkiG9w0BAQUFAAOC
AQEAsAh+jBDpArdpOnLUpBxZlWbtUCHZoFoI8+JV68YFvGRGYYDKcxUXMSVNuOls
v/oZniNoQrYL/cFnt3rmnX1Rh2ObzOQu1nAI5Z8xHEbQVF/cq5L9dzVeQ44Pa0Ct
JtZ06GYqRhLTjCoKwuCylUnYnn4OHVBPurvz6wC/0LoqeRDVm8I8bVKow/vz/kIU
NcuZc9Yamkv/F/V7UnEoIGk6M2yqv7zb8hsSD+CJtCSKtFip1YKdUS9RcCG919xz
ggW0qbFHZhYXbDtCiMcXPiSd8/G2wyoiL9Mtnszyre3U7ulZ2y7+b8WYE/gzkUuP
Ko7dOUaqGXQkt8NDnpOphw1Zhw==
-----END CERTIFICATE-----
Certificate:
    Data:
        Version: 3 (0x2)
        Serial Number: 1 (0x1)
        Signature Algorithm: sha1WithRSAEncryption
        Issuer: DC=org, DC=simple, O=Simple Inc, OU=Simple Root CA, CN=Simple Root CA
        Validity
            Not Before: May 13 19:12:38 2021 GMT
            Not After : May 13 19:12:38 2031 GMT
        Subject: DC=org, DC=simple, O=Simple Inc, OU=Simple Root CA, CN=Simple Root CA
        Subject Public Key Info:
            Public Key Algorithm: rsaEncryption
                RSA Public-Key: (2048 bit)
                Modulus:
                    00:ed:88:d1:d0:3b:ab:db:f0:54:3c:60:c9:2f:c7:
                    5a:12:d2:03:4e:8a:b3:7e:65:6f:83:39:b9:5e:7f:
                    7b:f7:44:5b:80:c8:98:ae:02:d5:fa:b1:15:b2:74:
                    f7:f0:f0:9b:de:4f:97:83:21:a5:5d:3d:ec:5f:e8:
                    45:12:ec:91:fe:cc:86:63:22:05:7c:3e:ee:1f:7b:
                    c9:80:16:8b:7c:22:ef:01:a0:e9:35:dd:88:82:fc:
                    c0:34:69:82:7e:ee:03:68:5e:a9:a7:01:30:f3:77:
                    92:8f:84:9c:42:9b:cc:78:28:ae:0a:04:80:e0:e1:
                    a5:cf:83:21:9a:68:44:90:d9:08:5e:71:3e:f2:a7:
                    38:6e:1b:f5:f8:50:0f:1a:12:6c:97:ec:af:52:f5:
                    c9:4b:e6:5b:18:be:34:09:6b:b1:92:03:c6:64:a4:
                    44:43:c5:12:07:7e:9c:2f:0c:40:af:47:66:bf:58:
                    ed:1e:f4:21:96:df:08:d2:7c:e0:21:d2:24:de:99:
                    8b:49:67:0a:80:f4:26:a8:8e:20:8b:26:12:3f:43:
                    0d:12:fa:9d:d5:d8:c0:f3:21:4d:41:6b:dc:f2:77:
                    c9:a8:d3:f3:7e:de:a8:c4:f9:bd:67:3c:c7:e0:ec:
                    d4:08:26:2f:f1:fc:15:32:63:3a:9a:c6:dc:03:1c:
                    09:79
                Exponent: 65537 (0x10001)
        X509v3 extensions:
            X509v3 Key Usage: critical
                Certificate Sign, CRL Sign
            X509v3 Basic Constraints: critical
                CA:TRUE
            X509v3 Subject Key Identifier: 
                9E:32:33:BF:75:84:5E:8D:A5:02:0C:FA:E1:19:66:44:46:9E:CA:B9
            X509v3 Authority Key Identifier: 
                keyid:9E:32:33:BF:75:84:5E:8D:A5:02:0C:FA:E1:19:66:44:46:9E:CA:B9

    Signature Algorithm: sha1WithRSAEncryption
         d3:21:f2:ef:89:74:d8:4a:d2:73:54:42:c8:46:0c:11:f9:f8:
         1a:7a:3c:0a:d0:a6:ca:7f:ee:93:69:89:f3:ba:1b:d9:b4:52:
         ba:03:a9:3b:0b:7f:89:b0:36:bd:ee:fb:98:45:ab:3b:a1:4a:
         20:48:8a:6b:39:6c:4a:84:69:3c:1d:90:27:c7:2c:3a:9e:67:
         47:ef:dd:e6:e3:85:1e:fe:1b:2f:bc:bb:b1:9f:8d:ab:3e:85:
         04:38:e5:fd:75:5c:2f:d0:af:cc:17:73:a3:2c:e5:1c:38:ed:
         ea:fe:7e:52:3b:73:b2:4d:c8:5d:90:bd:c9:68:36:97:68:4e:
         ec:b4:8f:5d:28:60:7d:2e:90:b6:24:1e:0a:29:37:13:59:95:
         03:2c:26:4a:31:29:73:f2:79:42:cb:1a:d5:69:35:5a:b8:25:
         1c:a6:c0:32:8c:ed:71:54:4b:66:2c:97:85:8b:99:54:c6:a7:
         ec:49:69:f3:43:1b:41:77:36:60:13:2f:4d:d2:70:97:1b:a2:
         e5:20:1b:8d:11:aa:ed:d6:0b:9d:42:fe:7d:74:31:51:51:36:
         38:e3:b8:58:b2:46:69:82:64:fb:7e:c1:bb:22:09:46:06:44:
         34:91:d0:f9:4b:f8:ae:b7:8a:86:f4:0b:3d:0c:3f:7a:f8:e5:
         e8:1a:24:6b
-----BEGIN CERTIFICATE-----
MIIDxjCCAq6gAwIBAgIBATANBgkqhkiG9w0BAQUFADB0MRMwEQYKCZImiZPyLGQB
GRYDb3JnMRYwFAYKCZImiZPyLGQBGRYGc2ltcGxlMRMwEQYDVQQKDApTaW1wbGUg
SW5jMRcwFQYDVQQLDA5TaW1wbGUgUm9vdCBDQTEXMBUGA1UEAwwOU2ltcGxlIFJv
b3QgQ0EwHhcNMjEwNTEzMTkxMjM4WhcNMzEwNTEzMTkxMjM4WjB0MRMwEQYKCZIm
iZPyLGQBGRYDb3JnMRYwFAYKCZImiZPyLGQBGRYGc2ltcGxlMRMwEQYDVQQKDApT
aW1wbGUgSW5jMRcwFQYDVQQLDA5TaW1wbGUgUm9vdCBDQTEXMBUGA1UEAwwOU2lt
cGxlIFJvb3QgQ0EwggEiMA0GCSqGSIb3DQEBAQUAA4IBDwAwggEKAoIBAQDtiNHQ
O6vb8FQ8YMkvx1oS0gNOirN+ZW+DOblef3v3RFuAyJiuAtX6sRWydPfw8JveT5eD
IaVdPexf6EUS7JH+zIZjIgV8Pu4fe8mAFot8Iu8BoOk13YiC/MA0aYJ+7gNoXqmn
ATDzd5KPhJxCm8x4KK4KBIDg4aXPgyGaaESQ2QhecT7ypzhuG/X4UA8aEmyX7K9S
9clL5lsYvjQJa7GSA8ZkpERDxRIHfpwvDECvR2a/WO0e9CGW3wjSfOAh0iTemYtJ
ZwqA9CaojiCLJhI/Qw0S+p3V2MDzIU1Ba9zyd8mo0/N+3qjE+b1nPMfg7NQIJi/x
/BUyYzqaxtwDHAl5AgMBAAGjYzBhMA4GA1UdDwEB/wQEAwIBBjAPBgNVHRMBAf8E
BTADAQH/MB0GA1UdDgQWBBSeMjO/dYRejaUCDPrhGWZERp7KuTAfBgNVHSMEGDAW
gBSeMjO/dYRejaUCDPrhGWZERp7KuTANBgkqhkiG9w0BAQUFAAOCAQEA0yHy74l0
2ErSc1RCyEYMEfn4Gno8CtCmyn/uk2mJ87ob2bRSugOpOwt/ibA2ve77mEWrO6FK
IEiKazlsSoRpPB2QJ8csOp5nR+/d5uOFHv4bL7y7sZ+Nqz6FBDjl/XVcL9CvzBdz
oyzlHDjt6v5+Ujtzsk3IXZC9yWg2l2hO7LSPXShgfS6QtiQeCik3E1mVAywmSjEp
c/J5Qssa1Wk1WrglHKbAMoztcVRLZiyXhYuZVMan7Elp80MbQXc2YBMvTdJwlxui
5SAbjRGq7dYLnUL+fXQxUVE2OOO4WLJGaYJk+37BuyIJRgZENJHQ+Uv4rreKhvQL
PQw/evjl6Bokaw==
-----END CERTIFICATE-----
