Certificate:
    Data:
        Version: 3 (0x2)
        Serial Number: 2 (0x2)
        Signature Algorithm: sha1WithRSAEncryption
        Issuer: DC=org, DC=simple, O=Simple Inc, OU=Simple Root CA, CN=Simple Root CA
        Validity
            Not Before: May 13 19:14:26 2021 GMT
            Not After : May 13 19:14:26 2031 GMT
        Subject: DC=org, DC=simple, O=Simple Inc, OU=Simple Signing CA, CN=Simple Signing CA
        Subject Public Key Info:
            Public Key Algorithm: rsaEncryption
                RSA Public-Key: (2048 bit)
                Modulus:
                    00:a4:4c:17:2b:dd:d4:e5:e0:f5:a4:a8:fc:bc:a0:
                    48:f2:09:a6:fa:65:df:22:c8:1c:8d:11:ee:4e:51:
                    90:83:d2:1f:32:31:25:5d:8a:3b:95:ac:b2:21:4d:
                    15:ae:6c:05:a3:bb:a8:23:8b:4c:4f:5c:50:4a:8e:
                    00:25:3b:3f:ae:62:0e:ed:56:26:81:a1:27:37:e2:
                    49:83:55:08:2b:2f:1a:a6:99:21:b7:73:ae:eb:19:
                    b6:21:c7:57:79:4f:2d:33:14:a2:ca:b9:2c:cc:76:
                    6b:1a:dd:a9:4a:6a:c8:86:ce:7f:9c:5f:f7:f2:28:
                    38:f1:41:e1:71:5d:ee:a1:80:4d:ea:33:81:fd:e3:
                    4e:2e:1c:ad:2c:f7:21:26:ea:7e:df:4b:1c:81:38:
                    48:00:cb:96:42:ee:10:f6:05:02:c7:9a:6b:d4:25:
                    7d:da:a0:96:06:65:6e:ef:d3:f6:db:ad:78:a2:85:
                    62:23:fb:d9:ac:a7:17:a1:7b:fb:3a:31:24:d8:7e:
                    58:23:c9:82:b8:15:ce:7c:30:62:81:a4:f5:72:4b:
                    ad:53:67:19:01:0b:da:e4:0b:af:9f:cb:7e:44:f5:
                    48:17:7c:93:6d:0a:03:3b:07:ec:7b:52:10:93:a0:
                    65:b7:b5:fb:31:c4:5b:23:f0:56:bd:bb:e8:9e:23:
                    db:e5
                Exponent: 65537 (0x10001)
        X509v3 extensions:
            X509v3 Key Usage: critical
                Certificate Sign, CRL Sign
            X509v3 Basic Constraints: critical
                CA:TRUE, pathlen:0
            X509v3 Subject Key Identifier: 
                A8:E3:0F:2E:E7:01:0F:D0:ED:E9:10:DD:9E:02:56:E7:0A:BF:CE:6F
            X509v3 Authority Key Identifier: 
                keyid:9E:32:33:BF:75:84:5E:8D:A5:02:0C:FA:E1:19:66:44:46:9E:CA:B9

    Signature Algorithm: sha1WithRSAEncryption
         b0:08:7e:8c:10:e9:02:b7:69:3a:72:d4:a4:1c:59:95:66:ed:
         50:21:d9:a0:5a:08:f3:e2:55:eb:c6:05:bc:64:46:61:80:ca:
         73:15:17:31:25:4d:b8:e9:6c:bf:fa:19:9e:23:68:42:b6:0b:
         fd:c1:67:b7:7a:e6:9d:7d:51:87:63:9b:cc:e4:2e:d6:70:08:
         e5:9f:31:1c:46:d0:54:5f:dc:ab:92:fd:77:35:5e:43:8e:0f:
         6b:40:ad:26:d6:74:e8:66:2a:46:12:d3:8c:2a:0a:c2:e0:b2:
         95:49:d8:9e:7e:0e:1d:50:4f:ba:bb:f3:eb:00:bf:d0:ba:2a:
         79:10:d5:9b:c2:3c:6d:52:a8:c3:fb:f3:fe:42:14:35:cb:99:
         73:d6:1a:9a:4b:ff:17:f5:7b:52:71:28:20:69:3a:33:6c:aa:
         bf:bc:db:f2:1b:12:0f:e0:89:b4:24:8a:b4:58:a9:d5:82:9d:
         51:2f:51:70:21:bd:d7:dc:73:82:05:b4:a9:b1:47:66:16:17:
         6c:3b:42:88:c7:17:3e:24:9d:f3:f1:b6:c3:2a:22:2f:d3:2d:
         9e:cc:f2:ad:ed:d4:ee:e9:59:db:2e:fe:6f:c5:98:13:f8:33:
         91:4b:8f:2a:8e:dd:39:46:aa:19:74:24:b7:c3:43:9e:93:a9:
         87:0d:59:87
-----BEGIN CERTIFICATE-----
MIIDzzCCAregAwIBAgIBAjANBgkqhkiG9w0BAQUFADB0MRMwEQYKCZImiZPyLGQB
GRYDb3JnMRYwFAYKCZImiZPyLGQBGRYGc2ltcGxlMRMwEQYDVQQKDApTaW1wbGUg
SW5jMRcwFQYDVQQLDA5TaW1wbGUgUm9vdCBDQTEXMBUGA1UEAwwOU2ltcGxlIFJv
b3QgQ0EwHhcNMjEwNTEzMTkxNDI2WhcNMzEwNTEzMTkxNDI2WjB6MRMwEQYKCZIm
iZPyLGQBGRYDb3JnMRYwFAYKCZImiZPyLGQBGRYGc2ltcGxlMRMwEQYDVQQKDApT
aW1wbGUgSW5jMRowGAYDVQQLDBFTaW1wbGUgU2lnbmluZyBDQTEaMBgGA1UEAwwR
U2ltcGxlIFNpZ25pbmcgQ0EwggEiMA0GCSqGSIb3DQEBAQUAA4IBDwAwggEKAoIB
AQCkTBcr3dTl4PWkqPy8oEjyCab6Zd8iyByNEe5OUZCD0h8yMSVdijuVrLIhTRWu
bAWju6gji0xPXFBKjgAlOz+uYg7tViaBoSc34kmDVQgrLxqmmSG3c67rGbYhx1d5
Ty0zFKLKuSzMdmsa3alKasiGzn+cX/fyKDjxQeFxXe6hgE3qM4H9404uHK0s9yEm
6n7fSxyBOEgAy5ZC7hD2BQLHmmvUJX3aoJYGZW7v0/bbrXiihWIj+9mspxehe/s6
MSTYflgjyYK4Fc58MGKBpPVyS61TZxkBC9rkC6+fy35E9UgXfJNtCgM7B+x7UhCT
oGW3tfsxxFsj8Fa9u+ieI9vlAgMBAAGjZjBkMA4GA1UdDwEB/wQEAwIBBjASBgNV
HRMBAf8ECDAGAQH/AgEAMB0GA1UdDgQWBBSo4w8u5wEP0O3pEN2eAlbnCr/ObzAf
BgNVHSMEGDAWgBSeMjO/dYRejaUCDPrhGWZERp7KuTANBgkqhkiG9w0BAQUFAAOC
AQEAsAh+jBDpArdpOnLUpBxZlWbtUCHZoFoI8+JV68YFvGRGYYDKcxUXMSVNuOls
v/oZniNoQrYL/cFnt3rmnX1Rh2ObzOQu1nAI5Z8xHEbQVF/cq5L9dzVeQ44Pa0Ct
JtZ06GYqRhLTjCoKwuCylUnYnn4OHVBPurvz6wC/0LoqeRDVm8I8bVKow/vz/kIU
NcuZc9Yamkv/F/V7UnEoIGk6M2yqv7zb8hsSD+CJtCSKtFip1YKdUS9RcCG919xz
ggW0qbFHZhYXbDtCiMcXPiSd8/G2wyoiL9Mtnszyre3U7ulZ2y7+b8WYE/gzkUuP
Ko7dOUaqGXQkt8NDnpOphw1Zhw==
-----END CERTIFICATE-----
